; Function Attrs: null_pointer_is_valid sspstrong uwtable
define internal fastcc i32 @dissect_rsl_ie_rach_load(ptr noundef %0, ptr noundef %1, i32 noundef %2) unnamed_addr #0 {
  %4 = alloca ptr, align 8
  call void @llvm.lifetime.start.p0(i64 8, ptr nonnull %4) #6
  %5 = tail call zeroext i8 @tvb_get_uint8(ptr noundef %0, i32 noundef %2)
  %.not = icmp eq i8 %5, 18
  br i1 %.not, label %6, label %34

6:                                                ; preds = %3
  %7 = load i32, ptr @ett_ie_rach_load, align 4
  %8 = call ptr @proto_tree_add_subtree(ptr noundef %1, ptr noundef %0, i32 noundef %2, i32 noundef 0, i32 noundef %7, ptr noundef nonnull %4, ptr noundef nonnull @.str.764)
  %9 = load i32, ptr @hf_rsl_ie_id, align 4
  %10 = call ptr @proto_tree_add_item(ptr noundef %8, i32 noundef %9, ptr noundef %0, i32 noundef %2, i32 noundef 1, i32 noundef 0)
  %11 = add i32 %2, 1
  %12 = call zeroext i8 @tvb_get_uint8(ptr noundef %0, i32 noundef %11)
  %13 = zext i8 %12 to i32
  %14 = load ptr, ptr %4, align 8
  %15 = add nuw nsw i32 %13, 2
  call void @proto_item_set_len(ptr noundef %14, i32 noundef %15)
  %16 = load i32, ptr @hf_rsl_ie_length, align 4
  %17 = call ptr @proto_tree_add_item(ptr noundef %8, i32 noundef %16, ptr noundef %0, i32 noundef %11, i32 noundef 1, i32 noundef 0)
  %18 = add i32 %2, 2
  %19 = load i32, ptr @hf_rsl_rach_slot_cnt, align 4
  %20 = call ptr @proto_tree_add_item(ptr noundef %8, i32 noundef %19, ptr noundef %0, i32 noundef %18, i32 noundef 2, i32 noundef 0)
  %21 = add i32 %2, 4
  %22 = load i32, ptr @hf_rsl_rach_busy_cnt, align 4
  %23 = call ptr @proto_tree_add_item(ptr noundef %8, i32 noundef %22, ptr noundef %0, i32 noundef %21, i32 noundef 2, i32 noundef 0)
  %24 = add i32 %2, 6
  %25 = load i32, ptr @hf_rsl_rach_acc_cnt, align 4
  %26 = call ptr @proto_tree_add_item(ptr noundef %8, i32 noundef %25, ptr noundef %0, i32 noundef %24, i32 noundef 2, i32 noundef 0)
  %27 = add nsw i32 %13, -6
  %.not44 = icmp eq i32 %27, 0
  br i1 %.not44, label %32, label %28

28:                                               ; preds = %6
  %29 = add i32 %2, 8
  %30 = load i32, ptr @hf_rsl_rach_supplementary_information, align 4
  %31 = call ptr @proto_tree_add_item(ptr noundef %8, i32 noundef %30, ptr noundef %0, i32 noundef %29, i32 noundef %27, i32 noundef 0)
  br label %32

32:                                               ; preds = %28, %6
  %33 = add i32 %27, %18
  br label %34

34:                                               ; preds = %3, %32
  %.0 = phi i32 [ %33, %32 ], [ %2, %3 ]
  call void @llvm.lifetime.end.p0(i64 8, ptr nonnull %4) #6
  ret i32 %.0
}